(lp0
S'DY1JetsToLL_M-50_TuneCP5_13TeV-madgraphMLM-pythia8'
p1
aS'DY2JetsToLL_M-50_TuneCP5_13TeV-madgraphMLM-pythia8'
p2
aS'DY3JetsToLL_M-50_TuneCP5_13TeV-madgraphMLM-pythia8'
p3
aS'DY4JetsToLL_M-50_TuneCP5_13TeV-madgraphMLM-pythia8'
p4
aS'DYJetsToLL_M-50_TuneCP5_13TeV-amcatnloFXFX-pythia8'
p5
aS'JetHT'
p6
aS'QCD_HT1000to1500_TuneCP5_PSWeights_13TeV-madgraphMLM-pythia8'
p7
aS'QCD_HT1500to2000_TuneCP5_PSWeights_13TeV-madgraphMLM-pythia8'
p8
aS'QCD_HT2000toInf_TuneCP5_PSWeights_13TeV-madgraphMLM-pythia8'
p9
aS'QCD_HT200to300_TuneCP5_PSWeights_13TeV-madgraphMLM-pythia8'
p10
aS'QCD_HT300to500_TuneCP5_PSWeights_13TeV-madgraphMLM-pythia8'
p11
aS'QCD_HT500to700_TuneCP5_PSWeights_13TeV-madgraphMLM-pythia8'
p12
aS'QCD_HT700to1000_TuneCP5_PSWeights_13TeV-madgraphMLM-pythia8'
p13
aS'ST_s-channel_4f_leptonDecays_TuneCP5_13TeV-amcatnlo-pythia8'
p14
aS'ST_t-channel_antitop_5f_InclusiveDecays_TuneCP5_13TeV-powheg-pythia8'
p15
aS'ST_t-channel_top_4f_InclusiveDecays_TuneCP5_13TeV-powheg-madspin-pythia8'
p16
aS'ST_tW_antitop_5f_NoFullyHadronicDecays_TuneCP5_13TeV-powheg-pythia8'
p17
aS'ST_tW_top_5f_NoFullyHadronicDecays_TuneCP5_13TeV-powheg-pythia8'
p18
aS'SingleElectron'
p19
aS'SingleMuon'
p20
aS'TTTo2L2Nu_TuneCP5_13TeV-powheg-pythia8_Mtt1000toInf'
p21
aS'TTTo2L2Nu_TuneCP5_13TeV-powheg-pythia8_Mtt700to1000'
p22
aS'TTToHadronic_TuneCP5_13TeV-powheg-pythia8_Mtt0to700'
p23
aS'TTToHadronic_TuneCP5_13TeV-powheg-pythia8_Mtt1000toInf'
p24
aS'TTToHadronic_TuneCP5_13TeV-powheg-pythia8_Mtt700to1000'
p25
aS'TTWJetsToLNu_TuneCP5_13TeV-amcatnloFXFX-madspin-pythia8'
p26
aS'TTZToLLNuNu_M-10_TuneCP5_13TeV-amcatnlo-pythia8'
p27
aS'TT_Mtt-1000toInf_TuneCP5_13TeV-powheg-pythia8'
p28
aS'TT_Mtt-700to1000_TuneCP5_13TeV-powheg-pythia8'
p29
aS'TT_Mtt-700to1000_TuneCP5_PSweights_13TeV-powheg-pythia8'
p30
aS'WJetsToLNu_HT-1200To2500_TuneCP5_13TeV-madgraphMLM-pythia8'
p31
aS'WJetsToLNu_HT-200To400_TuneCP5_13TeV-madgraphMLM-pythia8'
p32
aS'WJetsToLNu_HT-2500ToInf_TuneCP5_13TeV-madgraphMLM-pythia8'
p33
aS'WJetsToLNu_HT-800To1200_TuneCP5_13TeV-madgraphMLM-pythia8'
p34
aS'WJetsToLNu_TuneCP5_13TeV-madgraphMLM-pythia8'
p35
aS'WW_TuneCP5_13TeV-pythia8'
p36
aS'WW_TuneCP5_PSweights_13TeV-pythia8'
p37
aS'WZ_TuneCP5_13TeV-pythia8'
p38
aS'WZ_TuneCP5_PSweights_13TeV-pythia8'
p39
aS'ZZ_TuneCP5_13TeV-pythia8'
p40
aS'tH_tH_x53x53_narrow_MX1000_MH200_TuneCP5_13TeV-madgraph-pythia8'
p41
aS'tH_tH_x53x53_narrow_MX1000_MH400_TuneCP5_13TeV-madgraph-pythia8'
p42
aS'tH_tH_x53x53_narrow_MX1000_MH600_TuneCP5_13TeV-madgraph-pythia8'
p43
aS'tH_tH_x53x53_narrow_MX1000_MH800_TuneCP5_13TeV-madgraph-pythia8'
p44
aS'tH_tH_x53x53_narrow_MX1100_MH200_TuneCP5_13TeV-madgraph-pythia8'
p45
aS'tH_tH_x53x53_narrow_MX1100_MH400_TuneCP5_13TeV-madgraph-pythia8'
p46
aS'tH_tH_x53x53_narrow_MX1100_MH600_TuneCP5_13TeV-madgraph-pythia8'
p47
aS'tH_tH_x53x53_narrow_MX1100_MH800_TuneCP5_13TeV-madgraph-pythia8'
p48
aS'tH_tH_x53x53_narrow_MX1200_MH1000_TuneCP5_13TeV-madgraph-pythia'
p49
aS'tH_tH_x53x53_narrow_MX1200_MH1000_TuneCP5_13TeV-madgraph-pythia8'
p50
aS'tH_tH_x53x53_narrow_MX1200_MH200_TuneCP5_13TeV-madgraph-pythia8'
p51
aS'tH_tH_x53x53_narrow_MX1200_MH400_TuneCP5_13TeV-madgraph-pythia8'
p52
aS'tH_tH_x53x53_narrow_MX1200_MH600_TuneCP5_13TeV-madgraph-pythia8'
p53
aS'tH_tH_x53x53_narrow_MX1200_MH800_TuneCP5_13TeV-madgraph-pythia8'
p54
aS'tH_tH_x53x53_narrow_MX1500_MH1000_TuneCP5_13TeV-madgraph-pythia8'
p55
aS'tH_tH_x53x53_narrow_MX1500_MH200_TuneCP5_13TeV-madgraph-pythia8'
p56
aS'tH_tH_x53x53_narrow_MX1500_MH400_TuneCP5_13TeV-madgraph-pythia8'
p57
aS'tH_tH_x53x53_narrow_MX1500_MH600_TuneCP5_13TeV-madgraph-pythia8'
p58
aS'tH_tH_x53x53_narrow_MX1500_MH800_TuneCP5_13TeV-madgraph-pythia8'
p59
aS'tH_tH_x53x53_narrow_MX600_MH200_TuneCP5_13TeV-madgraph-pythia8'
p60
aS'tH_tH_x53x53_narrow_MX600_MH400_TuneCP5_13TeV-madgraph-pythia8'
p61
aS'tH_tH_x53x53_narrow_MX700_MH200_TuneCP5_13TeV-madgraph-pythia8'
p62
aS'tH_tH_x53x53_narrow_MX700_MH400_TuneCP5_13TeV-madgraph-pythia8'
p63
aS'tH_tH_x53x53_narrow_MX800_MH200_TuneCP5_13TeV-madgraph-pythia8'
p64
aS'tH_tH_x53x53_narrow_MX800_MH400_TuneCP5_13TeV-madgraph-pythia8'
p65
aS'tH_tH_x53x53_narrow_MX800_MH600_TuneCP5_13TeV-madgraph-pythia8'
p66
aS'tH_tH_x53x53_narrow_MX900_MH200_TuneCP5_13TeV-madgraph-pythia8'
p67
aS'tH_tH_x53x53_narrow_MX900_MH400_TuneCP5_13TeV-madgraph-pythia8'
p68
aS'tH_tH_x53x53_narrow_MX900_MH600_TuneCP5_13TeV-madgraph-pythia8'
p69
a.